; Function Attrs: nofree norecurse nosync nounwind sspstrong memory(readwrite, inaccessiblemem: none) uwtable
define range(i32 0, 2) i32 @cJSON_InsertItemInArray(ptr noundef %0, i32 noundef %1, ptr noundef %2) local_unnamed_addr #21 {
  %4 = icmp slt i32 %1, 0
  %5 = icmp eq ptr %2, null
  %or.cond = or i1 %4, %5
  %6 = icmp eq ptr %0, null
  %or.cond30 = or i1 %6, %or.cond
  br i1 %or.cond30, label %add_item_to_array.exit, label %7

7:                                                ; preds = %3
  %8 = zext nneg i32 %1 to i64
  %9 = getelementptr inbounds nuw i8, ptr %0, i64 16
  br label %10

10:                                               ; preds = %10, %7
  %.07.i = phi i64 [ %8, %7 ], [ %14, %10 ]
  %.0.in.i = phi ptr [ %9, %7 ], [ %.0.i, %10 ]
  %.0.i = load ptr, ptr %.0.in.i, align 8, !tbaa !53
  %11 = icmp ne ptr %.0.i, null
  %12 = icmp ne i64 %.07.i, 0
  %13 = select i1 %11, i1 %12, i1 false
  %14 = add nsw i64 %.07.i, -1
  br i1 %13, label %10, label %get_array_item.exit

get_array_item.exit:                              ; preds = %10
  %15 = icmp eq ptr %.0.i, null
  br i1 %15, label %16, label %28

16:                                               ; preds = %get_array_item.exit
  %17 = icmp eq ptr %0, %2
  br i1 %17, label %add_item_to_array.exit, label %18

18:                                               ; preds = %16
  %19 = load ptr, ptr %9, align 8, !tbaa !25
  %20 = icmp eq ptr %19, null
  br i1 %20, label %21, label %23

21:                                               ; preds = %18
  store ptr %2, ptr %9, align 8, !tbaa !25
  %22 = getelementptr inbounds nuw i8, ptr %2, i64 8
  store ptr %2, ptr %22, align 8, !tbaa !40
  store ptr null, ptr %2, align 8, !tbaa !24
  br label %add_item_to_array.exit

23:                                               ; preds = %18
  %24 = getelementptr inbounds nuw i8, ptr %19, i64 8
  %25 = load ptr, ptr %24, align 8, !tbaa !40
  %.not.i = icmp eq ptr %25, null
  br i1 %.not.i, label %add_item_to_array.exit, label %26

26:                                               ; preds = %23
  store ptr %2, ptr %25, align 8, !tbaa !24
  %27 = getelementptr inbounds nuw i8, ptr %2, i64 8
  store ptr %25, ptr %27, align 8, !tbaa !40
  store ptr %2, ptr %24, align 8, !tbaa !40
  br label %add_item_to_array.exit

28:                                               ; preds = %get_array_item.exit
  %29 = load ptr, ptr %9, align 8, !tbaa !25
  %.not = icmp eq ptr %.0.i, %29
  br i1 %.not, label %34, label %30

30:                                               ; preds = %28
  %31 = getelementptr inbounds nuw i8, ptr %.0.i, i64 8
  %32 = load ptr, ptr %31, align 8, !tbaa !40
  %33 = icmp eq ptr %32, null
  br i1 %33, label %add_item_to_array.exit, label %38

34:                                               ; preds = %28
  store ptr %.0.i, ptr %2, align 8, !tbaa !24
  %35 = getelementptr inbounds nuw i8, ptr %.0.i, i64 8
  %36 = load ptr, ptr %35, align 8, !tbaa !40
  %37 = getelementptr inbounds nuw i8, ptr %2, i64 8
  store ptr %36, ptr %37, align 8, !tbaa !40
  store ptr %2, ptr %35, align 8, !tbaa !40
  store ptr %2, ptr %9, align 8, !tbaa !25
  br label %add_item_to_array.exit

38:                                               ; preds = %30
  store ptr %.0.i, ptr %2, align 8, !tbaa !24
  %39 = getelementptr inbounds nuw i8, ptr %2, i64 8
  store ptr %32, ptr %39, align 8, !tbaa !40
  store ptr %2, ptr %31, align 8, !tbaa !40
  %40 = load ptr, ptr %39, align 8, !tbaa !40
  store ptr %2, ptr %40, align 8, !tbaa !24
  br label %add_item_to_array.exit

add_item_to_array.exit:                           ; preds = %26, %23, %21, %16, %34, %38, %30, %3
  %.0 = phi i32 [ 0, %3 ], [ 0, %30 ], [ 1, %38 ], [ 1, %34 ], [ 0, %16 ], [ 1, %23 ], [ 1, %26 ], [ 1, %21 ]
  ret i32 %.0
}